(lp1
V06f10019-6190-43c9-9a50-985592cb6229
p2
aV41e25daa-7ad4-4e56-be06-919dae46c2dc
p3
aVe3c7af6b-74a4-4401-9e44-87a3fc7d3f5f
p4
aVae5012d4-f2ea-4aa1-8302-af8f8432f820
p5
aVe751ccc5-3ad4-49fa-885d-c54ebc1827d3
p6
aVc9042298-cf29-4705-8726-fb2eb9390d1b
p7
aVb80528a0-5753-496c-8f40-2f66368219a3
p8
aVca551e36-98af-42c8-b143-5e75fd7ce906
p9
aV0db27b01-cfcd-438d-8241-61f06ec0e27c
p10
aV4ff5f7b7-5c60-4f0a-a08b-99979618aae6
p11
aV68974d35-1ff7-4b41-9822-ac80be175524
p12
aVd65fddd2-e44e-4228-9f08-a0c3e7e57f4a
p13
aV834e2ef4-5c1b-4759-bee2-d9afbf8cce63
p14
aV332ad24b-5bb1-40c6-8d81-8df996e074f9
p15
a.